Certificate:
    Data:
        Version: 3 (0x2)
        Serial Number: 4660 (0x1234)
    Signature Algorithm: sha256WithRSAEncryption
        Issuer: C=US, ST=MI, L=YP, O=h, OU=k, CN=cloud.learnstorage.online
        Validity
            Not Before: Jan 24 04:40:43 2019 GMT
            Not After : Jan 24 04:40:43 2020 GMT
        Subject: C=US, ST=MI, O=h, OU=k, CN=cloud.learnstorage.online
        Subject Public Key Info:
            Public Key Algorithm: rsaEncryption
                Public-Key: (2048 bit)
                Modulus:
                    00:c7:41:18:13:46:bf:2f:a1:88:28:03:3d:fa:87:
                    a2:49:eb:ef:be:81:e3:9b:9c:5a:85:c1:b1:d5:d6:
                    d5:73:d6:14:2b:82:bc:29:ee:41:0a:f8:9a:8a:b8:
                    3f:7a:af:4c:ea:6f:43:a7:62:e8:bc:32:4e:2a:a7:
                    c0:fc:61:87:22:1f:4b:20:78:e5:34:3a:7b:4a:17:
                    22:76:09:d5:b8:f2:dd:55:38:1c:47:9d:be:b6:ff:
                    61:7b:0a:aa:c7:78:f3:9a:31:a7:55:76:35:18:76:
                    61:d6:f4:84:68:77:6b:37:5f:51:bd:43:25:92:7c:
                    9e:87:2f:c6:47:86:3c:d0:e5:c9:52:f4:8b:27:ea:
                    06:47:22:96:1e:75:1c:9f:15:03:52:3d:33:df:63:
                    c7:e3:a8:3a:5f:17:ef:9a:f3:b0:c9:c7:b6:07:f9:
                    74:6d:9f:d6:1b:4c:f6:30:32:66:86:fd:31:21:b0:
                    b7:c1:e5:ea:b7:63:f0:05:b2:a3:81:7d:63:c6:23:
                    ad:07:eb:f3:0e:9a:5b:35:82:e1:73:2b:d3:a8:cd:
                    22:6d:30:36:c1:cc:a1:7b:29:7c:b6:4b:9e:3e:6a:
                    5e:04:01:7a:9c:ff:f5:ee:26:0d:01:99:c7:b9:d4:
                    35:70:c8:9c:26:3b:31:7a:36:f2:83:5b:e4:89:da:
                    a4:4d
                Exponent: 65537 (0x10001)
        X509v3 extensions:
            X509v3 Basic Constraints: 
                CA:FALSE
            Netscape Comment: 
                OpenSSL Generated Certificate
            X509v3 Subject Key Identifier: 
                0B:33:B5:12:A3:B0:10:F0:93:94:51:43:FE:55:D7:CF:9F:43:1F:74
            X509v3 Authority Key Identifier: 
                keyid:66:4E:91:AC:EF:32:5B:8C:AC:98:AD:EF:CD:E6:7D:CD:9D:87:E6:F7

    Signature Algorithm: sha256WithRSAEncryption
         b6:ec:15:15:16:8f:57:d2:ac:75:56:e6:3a:17:6a:02:bc:79:
         3b:06:4b:c1:7a:9e:1f:6e:46:9d:11:48:7d:77:9d:d7:19:4a:
         c1:ab:74:4f:60:01:ca:36:26:f5:71:af:c9:ee:80:9b:bb:ae:
         97:f0:3b:cc:b6:55:6c:e5:ae:2e:6e:09:f3:1a:2c:80:12:d4:
         54:a6:2c:6d:fa:eb:55:17:12:37:15:9f:82:5f:0e:a9:5d:8e:
         e7:99:f1:73:2e:c7:3c:bb:ac:fc:0d:ce:c2:4c:a4:83:60:7e:
         86:5d:73:62:7a:c9:b4:45:97:d2:c2:fd:63:69:e5:d6:df:85:
         ab:bb:66:49:67:01:44:85:02:48:b2:b8:10:83:8d:e4:c1:9a:
         96:a5:5c:a1:b6:ac:ea:42:55:f3:9e:9d:c9:91:46:8d:47:c1:
         00:8d:d4:84:81:96:c5:dc:0c:88:24:1d:27:75:26:ef:7b:36:
         75:92:ac:af:ba:d3:42:36:0a:f9:c8:0b:86:98:51:6e:9a:ed:
         39:d3:44:f5:5e:2c:e9:14:9e:6c:fc:a7:f5:da:c6:9f:23:e7:
         03:d7:40:82:5e:ee:9e:c7:19:ae:b4:35:0b:88:2d:30:67:4b:
         4d:61:21:62:d3:d1:eb:36:81:4a:5d:fc:90:a1:09:c4:2e:4e:
         0c:fe:09:19:c0:3d:91:47:20:11:eb:3e:43:bc:53:f5:10:9f:
         8d:6c:83:e2:28:2e:0e:df:15:77:3f:bc:23:d9:34:b2:2d:2e:
         08:49:e5:ee:cf:af:ef:9f:e7:1b:d2:96:45:fb:00:93:cf:96:
         09:b0:ca:b6:ee:ca:37:50:e0:36:bb:19:07:4a:f0:e6:a6:30:
         03:a8:c6:b4:19:9c:31:17:9b:c5:c3:67:12:e6:d5:6d:a0:da:
         96:f2:0c:9d:26:29:c1:4a:26:38:8f:f5:99:fb:f2:00:6f:94:
         c2:7b:91:8d:f1:3a:9e:db:25:03:f5:37:9e:85:8c:20:92:e5:
         87:75:b9:0b:14:48:06:72:b9:d8:a8:1e:dc:9a:2f:da:76:64:
         88:ba:93:16:ea:7c:c1:98:3e:42:1d:06:2c:73:f4:a8:fb:05:
         01:44:a9:d6:d5:fd:77:a1:1f:c7:bc:32:40:54:17:6b:7f:72:
         b6:4b:f8:3d:27:70:f2:b6:8e:ea:c7:32:20:55:39:7d:c9:73:
         9f:14:59:91:0a:bb:2a:f2:5e:9d:36:e1:e4:1d:1e:68:fc:3c:
         f9:a1:78:70:58:d1:32:dd:d9:b1:15:21:83:54:7c:ea:d3:3b:
         3c:09:d1:65:da:07:47:5a:87:b0:65:43:35:5f:6b:8e:81:0c:
         1a:97:04:46:ae:14:f9:2c
-----BEGIN CERTIFICATE-----
MIIEsDCCApigAwIBAgICEjQwDQYJKoZIhvcNAQELBQAwYzELMAkGA1UEBhMCVVMx
CzAJBgNVBAgMAk1JMQswCQYDVQQHDAJZUDEKMAgGA1UECgwBaDEKMAgGA1UECwwB
azEiMCAGA1UEAwwZY2xvdWQubGVhcm5zdG9yYWdlLm9ubGluZTAeFw0xOTAxMjQw
NDQwNDNaFw0yMDAxMjQwNDQwNDNaMFYxCzAJBgNVBAYTAlVTMQswCQYDVQQIDAJN
STEKMAgGA1UECgwBaDEKMAgGA1UECwwBazEiMCAGA1UEAwwZY2xvdWQubGVhcm5z
dG9yYWdlLm9ubGluZTCCASIwDQYJKoZIhvcNAQEBBQADggEPADCCAQoCggEBAMdB
GBNGvy+hiCgDPfqHoknr776B45ucWoXBsdXW1XPWFCuCvCnuQQr4moq4P3qvTOpv
Q6di6LwyTiqnwPxhhyIfSyB45TQ6e0oXInYJ1bjy3VU4HEedvrb/YXsKqsd485ox
p1V2NRh2Ydb0hGh3azdfUb1DJZJ8nocvxkeGPNDlyVL0iyfqBkcilh51HJ8VA1I9
M99jx+OoOl8X75rzsMnHtgf5dG2f1htM9jAyZob9MSGwt8Hl6rdj8AWyo4F9Y8Yj
rQfr8w6aWzWC4XMr06jNIm0wNsHMoXspfLZLnj5qXgQBepz/9e4mDQGZx7nUNXDI
nCY7MXo28oNb5InapE0CAwEAAaN7MHkwCQYDVR0TBAIwADAsBglghkgBhvhCAQ0E
HxYdT3BlblNTTCBHZW5lcmF0ZWQgQ2VydGlmaWNhdGUwHQYDVR0OBBYEFAsztRKj
sBDwk5RRQ/5V18+fQx90MB8GA1UdIwQYMBaAFGZOkazvMluMrJit783mfc2dh+b3
MA0GCSqGSIb3DQEBCwUAA4ICAQC27BUVFo9X0qx1VuY6F2oCvHk7BkvBep4fbkad
EUh9d53XGUrBq3RPYAHKNib1ca/J7oCbu66X8DvMtlVs5a4ubgnzGiyAEtRUpixt
+utVFxI3FZ+CXw6pXY7nmfFzLsc8u6z8Dc7CTKSDYH6GXXNiesm0RZfSwv1jaeXW
34Wru2ZJZwFEhQJIsrgQg43kwZqWpVyhtqzqQlXznp3JkUaNR8EAjdSEgZbF3AyI
JB0ndSbvezZ1kqyvutNCNgr5yAuGmFFumu0500T1XizpFJ5s/Kf12safI+cD10CC
Xu6exxmutDULiC0wZ0tNYSFi09HrNoFKXfyQoQnELk4M/gkZwD2RRyAR6z5DvFP1
EJ+NbIPiKC4O3xV3P7wj2TSyLS4ISeXuz6/vn+cb0pZF+wCTz5YJsMq27so3UOA2
uxkHSvDmpjADqMa0GZwxF5vFw2cS5tVtoNqW8gydJinBSiY4j/WZ+/IAb5TCe5GN
8Tqe2yUD9TeehYwgkuWHdbkLFEgGcrnYqB7cmi/admSIupMW6nzBmD5CHQYsc/So
+wUBRKnW1f13oR/HvDJAVBdrf3K2S/g9J3Dyto7qxzIgVTl9yXOfFFmRCrsq8l6d
NuHkHR5o/Dz5oXhwWNEy3dmxFSGDVHzq0zs8CdFl2gdHWoewZUM1X2uOgQwalwRG
rhT5LA==
-----END CERTIFICATE-----
